; Function Attrs: mustprogress nofree nounwind willreturn memory(write, argmem: readwrite) uwtable
define internal noundef double @_ZL16lmc_exp_one_parmdPKd(double noundef %0, ptr noundef readonly captures(none) %1) #4 {
  %3 = fneg double %0
  %4 = load double, ptr %1, align 8, !tbaa !13
  %5 = tail call double @llvm.fabs.f64(double %4)
  %6 = fdiv double %3, %5
  %7 = fcmp ugt double %6, -2.000000e+02
  br i1 %7, label %8, label %_ZL8safe_expd.exit

8:                                                ; preds = %2
  %9 = fcmp ult double %6, 2.000000e+02
  br i1 %9, label %10, label %_ZL8safe_expd.exit

10:                                               ; preds = %8
  %11 = tail call double @exp(double noundef %6) #18, !tbaa !4
  br label %_ZL8safe_expd.exit

_ZL8safe_expd.exit:                               ; preds = %2, %8, %10
  %.0.i = phi double [ %11, %10 ], [ 0x2DE6061812054CFA, %2 ], [ 0x51F73F60EA79F5B9, %8 ]
  ret double %.0.i
}